#include <math.h>
#include <stdio.h>
#include <stdlib.h>
#include <string.h>

main()
{
      char a[1000];
      gets(a);
      int i=0,time=0,temp=0;
      int len=strlen(a);
      for(i=0;i<len;i++)
      {
                        if(a[i]!=' ')
                        {
                                temp++;
                        }
                        else
                        {
                            if(temp!=0)
                            {
                                       if(time==0) printf("%d",temp);
                                       else printf(",%d",temp);
                                       time++;
                                       temp=0;
                            }
                        }
      }
      if(time==0) printf("%d",temp);
      else printf(",%d",temp);                         
}