; ModuleID = 'source-C-CXX/27/1960.c'
source_filename = "source-C-CXX/27/1960.c"
target datalayout = "e-m:e-p270:32:32-p271:32:32-p272:64:64-i64:64-f80:128-n8:16:32:64-S128"
target triple = "x86_64-pc-linux-gnu"

@.str = private unnamed_addr constant [3 x i8] c"%d\00", align 1
@.str.1 = private unnamed_addr constant [4 x i8] c",%d\00", align 1

; Function Attrs: nounwind sspstrong uwtable
define dso_local i32 @main() local_unnamed_addr #0 {
  %1 = alloca [1000 x i8], align 16
  %2 = getelementptr inbounds [1000 x i8], [1000 x i8]* %1, i64 0, i64 0
  call void @llvm.lifetime.start.p0i8(i64 1000, i8* nonnull %2) #5
  %3 = call i32 (i8*, ...) bitcast (i32 (...)* @gets to i32 (i8*, ...)*)(i8* nonnull %2) #5
  %4 = call i64 @strlen(i8* noundef nonnull %2) #6
  %5 = trunc i64 %4 to i32
  %6 = icmp sgt i32 %5, 0
  br i1 %6, label %7, label %32

7:                                                ; preds = %0
  %8 = and i64 %4, 4294967295
  br label %9

9:                                                ; preds = %7, %25
  %10 = phi i64 [ 0, %7 ], [ %28, %25 ]
  %11 = phi i32 [ 0, %7 ], [ %27, %25 ]
  %12 = phi i32 [ 0, %7 ], [ %26, %25 ]
  %13 = getelementptr inbounds [1000 x i8], [1000 x i8]* %1, i64 0, i64 %10
  %14 = load i8, i8* %13, align 1, !tbaa !5
  %15 = icmp eq i8 %14, 32
  br i1 %15, label %18, label %16

16:                                               ; preds = %9
  %17 = add nsw i32 %11, 1
  br label %25

18:                                               ; preds = %9
  %19 = icmp eq i32 %11, 0
  br i1 %19, label %25, label %20

20:                                               ; preds = %18
  %21 = icmp eq i32 %12, 0
  %22 = select i1 %21, i8* getelementptr inbounds ([3 x i8], [3 x i8]* @.str, i64 0, i64 0), i8* getelementptr inbounds ([4 x i8], [4 x i8]* @.str.1, i64 0, i64 0)
  %23 = call i32 (i8*, ...) @printf(i8* nonnull dereferenceable(1) %22, i32 %11)
  %24 = add nsw i32 %12, 1
  br label %25

25:                                               ; preds = %16, %20, %18
  %26 = phi i32 [ %12, %16 ], [ %24, %20 ], [ %12, %18 ]
  %27 = phi i32 [ %17, %16 ], [ 0, %20 ], [ 0, %18 ]
  %28 = add nuw nsw i64 %10, 1
  %29 = icmp eq i64 %28, %8
  br i1 %29, label %30, label %9, !llvm.loop !8

30:                                               ; preds = %25
  %31 = icmp eq i32 %26, 0
  br i1 %31, label %32, label %35

32:                                               ; preds = %0, %30
  %33 = phi i32 [ %27, %30 ], [ 0, %0 ]
  %34 = call i32 (i8*, ...) @printf(i8* nonnull dereferenceable(1) getelementptr inbounds ([3 x i8], [3 x i8]* @.str, i64 0, i64 0), i32 %33)
  br label %37

35:                                               ; preds = %30
  %36 = call i32 (i8*, ...) @printf(i8* nonnull dereferenceable(1) getelementptr inbounds ([4 x i8], [4 x i8]* @.str.1, i64 0, i64 0), i32 %27)
  br label %37

37:                                               ; preds = %35, %32
  call void @llvm.lifetime.end.p0i8(i64 1000, i8* nonnull %2) #5
  ret i32 0
}

; Function Attrs: argmemonly mustprogress nofree nosync nounwind willreturn
declare void @llvm.lifetime.start.p0i8(i64 immarg, i8* nocapture) #1

declare i32 @gets(...) local_unnamed_addr #2

; Function Attrs: argmemonly mustprogress nofree nounwind readonly willreturn
declare i64 @strlen(i8* nocapture) local_unnamed_addr #3

; Function Attrs: nofree nounwind
declare noundef i32 @printf(i8* nocapture noundef readonly, ...) local_unnamed_addr #4

; Function Attrs: argmemonly mustprogress nofree nosync nounwind willreturn
declare void @llvm.lifetime.end.p0i8(i64 immarg, i8* nocapture) #1


!llvm.module.flags = !{!0, !1, !2, !3}
!llvm.ident = !{!4}

!0 = !{i32 1, !"wchar_size", i32 4}
!1 = !{i32 7, !"PIC Level", i32 2}
!2 = !{i32 7, !"PIE Level", i32 2}
!3 = !{i32 7, !"uwtable", i32 1}
!4 = !{!"clang version 13.0.0"}
!5 = !{!6, !6, i64 0}
!6 = !{!"omnipotent char", !7, i64 0}
!7 = !{!"Simple C/C++ TBAA"}
!8 = distinct !{!8, !9}
!9 = !{!"llvm.loop.mustprogress"}
